target datalayout = "e-m:e-p270:32:32-p271:32:32-p272:64:64-i64:64-i128:128-f80:128-n8:16:32:64-S128"
target triple = "x86_64-unknown-linux-gnu"

%"class.icu_75::UObject" = type { ptr }
%"class.icu_75::ResourceSink" = type { %"class.icu_75::UObject" }
%"class.(anonymous namespace)::InflectedPluralSink" = type { %"class.icu_75::ResourceSink", ptr, ptr, ptr }
%"class.icu_75::ResourceTable" = type <{ ptr, ptr, ptr, ptr, i32, %"class.icu_75::ResourceTracer", [3 x i8] }>
%"class.icu_75::ResourceTracer" = type { i8 }

@.str = private unnamed_addr constant [1 x i8] zeroinitializer, align 1
@.str.38 = private unnamed_addr constant [2 x i8] c"_\00", align 1
@.str.39 = private unnamed_addr constant [11 x i8] c"nominative\00", align 1

; Function Attrs: mustprogress uwtable
define internal noundef zeroext i1 @_ZN12_GLOBAL__N_119InflectedPluralSink11loadForCaseERKN6icu_7513ResourceTableEPKcRNS1_13ResourceValueE(ptr noundef nonnull align 8 dereferenceable(32) %this, ptr noundef nonnull align 8 dereferenceable(37) %caseTable, ptr noundef %caseValue, ptr noundef nonnull align 8 dereferenceable(8) %value) #1 align 2 {
entry:
  %retval = alloca i1, align 1
  %this.addr = alloca ptr, align 8
  %caseTable.addr = alloca ptr, align 8
  %caseValue.addr = alloca ptr, align 8
  %value.addr = alloca ptr, align 8
  store ptr %this, ptr %this.addr, align 8
  store ptr %caseTable, ptr %caseTable.addr, align 8
  store ptr %caseValue, ptr %caseValue.addr, align 8
  store ptr %value, ptr %value.addr, align 8
  %0 = load ptr, ptr %caseTable.addr, align 8
  %1 = load ptr, ptr %caseValue.addr, align 8
  %2 = load ptr, ptr %value.addr, align 8
  %call = call noundef signext i8 @_ZNK6icu_7513ResourceTable9findValueEPKcRNS_13ResourceValueE(ptr noundef nonnull align 8 dereferenceable(37) %0, ptr noundef %1, ptr noundef nonnull align 8 dereferenceable(8) %2)
  %tobool = icmp ne i8 %call, 0
  br i1 %tobool, label %if.end, label %if.then

if.then:                                          ; preds = %entry
  store i1 false, ptr %retval, align 1
  br label %return

if.end:                                           ; preds = %entry
  store i1 true, ptr %retval, align 1
  br label %return

return:                                           ; preds = %if.end, %if.then
  %3 = load i1, ptr %retval, align 1
  ret i1 %3
}

; Function Attrs: mustprogress uwtable
define internal noundef zeroext i1 @_ZN12_GLOBAL__N_119InflectedPluralSink13loadForGenderERKN6icu_7513ResourceTableEPKcRS2_RNS1_13ResourceValueER10UErrorCode(ptr noundef nonnull align 8 dereferenceable(32) %this, ptr noundef nonnull align 8 dereferenceable(37) %genderTable, ptr noundef %genderVal, ptr noundef nonnull align 8 dereferenceable(37) %caseTable, ptr noundef nonnull align 8 dereferenceable(8) %value, ptr noundef nonnull align 4 dereferenceable(4) %status) #1 align 2 {
entry:
  %retval = alloca i1, align 1
  %this.addr = alloca ptr, align 8
  %genderTable.addr = alloca ptr, align 8
  %genderVal.addr = alloca ptr, align 8
  %caseTable.addr = alloca ptr, align 8
  %value.addr = alloca ptr, align 8
  %status.addr = alloca ptr, align 8
  %ref.tmp = alloca %"class.icu_75::ResourceTable", align 8
  store ptr %this, ptr %this.addr, align 8
  store ptr %genderTable, ptr %genderTable.addr, align 8
  store ptr %genderVal, ptr %genderVal.addr, align 8
  store ptr %caseTable, ptr %caseTable.addr, align 8
  store ptr %value, ptr %value.addr, align 8
  store ptr %status, ptr %status.addr, align 8
  %this1 = load ptr, ptr %this.addr, align 8
  %0 = load ptr, ptr %genderTable.addr, align 8
  %1 = load ptr, ptr %genderVal.addr, align 8
  %2 = load ptr, ptr %value.addr, align 8
  %call = call noundef signext i8 @_ZNK6icu_7513ResourceTable9findValueEPKcRNS_13ResourceValueE(ptr noundef nonnull align 8 dereferenceable(37) %0, ptr noundef %1, ptr noundef nonnull align 8 dereferenceable(8) %2)
  %tobool = icmp ne i8 %call, 0
  br i1 %tobool, label %if.end, label %if.then

if.then:                                          ; preds = %entry
  store i1 false, ptr %retval, align 1
  br label %return

if.end:                                           ; preds = %entry
  %3 = load ptr, ptr %value.addr, align 8
  %4 = load ptr, ptr %status.addr, align 8
  %vtable = load ptr, ptr %3, align 8
  %vfn = getelementptr inbounds ptr, ptr %vtable, i64 11
  %5 = load ptr, ptr %vfn, align 8
  call void %5(ptr sret(%"class.icu_75::ResourceTable") align 8 %ref.tmp, ptr noundef nonnull align 8 dereferenceable(8) %3, ptr noundef nonnull align 4 dereferenceable(4) %4)
  %6 = load ptr, ptr %caseTable.addr, align 8
  call void @llvm.memcpy.p0.p0.i64(ptr align 8 %6, ptr align 8 %ref.tmp, i64 37, i1 false)
  %caseVariant = getelementptr inbounds %"class.(anonymous namespace)::InflectedPluralSink", ptr %this1, i32 0, i32 2
  %7 = load ptr, ptr %caseVariant, align 8
  %call2 = call i32 @strcmp(ptr noundef %7, ptr noundef @.str) #17
  %cmp = icmp ne i32 %call2, 0
  br i1 %cmp, label %if.then3, label %if.end14

if.then3:                                         ; preds = %if.end
  %8 = load ptr, ptr %caseTable.addr, align 8
  %caseVariant4 = getelementptr inbounds %"class.(anonymous namespace)::InflectedPluralSink", ptr %this1, i32 0, i32 2
  %9 = load ptr, ptr %caseVariant4, align 8
  %10 = load ptr, ptr %value.addr, align 8
  %call5 = call noundef zeroext i1 @_ZN12_GLOBAL__N_119InflectedPluralSink11loadForCaseERKN6icu_7513ResourceTableEPKcRNS1_13ResourceValueE(ptr noundef nonnull align 8 dereferenceable(32) %this1, ptr noundef nonnull align 8 dereferenceable(37) %8, ptr noundef %9, ptr noundef nonnull align 8 dereferenceable(8) %10)
  br i1 %call5, label %if.then6, label %if.end7

if.then6:                                         ; preds = %if.then3
  store i1 true, ptr %retval, align 1
  br label %return

if.end7:                                          ; preds = %if.then3
  %caseVariant8 = getelementptr inbounds %"class.(anonymous namespace)::InflectedPluralSink", ptr %this1, i32 0, i32 2
  %11 = load ptr, ptr %caseVariant8, align 8
  %call9 = call i32 @strcmp(ptr noundef %11, ptr noundef @.str.39) #17
  %cmp10 = icmp ne i32 %call9, 0
  br i1 %cmp10, label %land.lhs.true, label %if.end13

land.lhs.true:                                    ; preds = %if.end7
  %12 = load ptr, ptr %caseTable.addr, align 8
  %13 = load ptr, ptr %value.addr, align 8
  %call11 = call noundef zeroext i1 @_ZN12_GLOBAL__N_119InflectedPluralSink11loadForCaseERKN6icu_7513ResourceTableEPKcRNS1_13ResourceValueE(ptr noundef nonnull align 8 dereferenceable(32) %this1, ptr noundef nonnull align 8 dereferenceable(37) %12, ptr noundef @.str.39, ptr noundef nonnull align 8 dereferenceable(8) %13)
  br i1 %call11, label %if.then12, label %if.end13

if.then12:                                        ; preds = %land.lhs.true
  store i1 true, ptr %retval, align 1
  br label %return

if.end13:                                         ; preds = %land.lhs.true, %if.end7
  br label %if.end14

if.end14:                                         ; preds = %if.end13, %if.end
  %14 = load ptr, ptr %caseTable.addr, align 8
  %15 = load ptr, ptr %value.addr, align 8
  %call15 = call noundef zeroext i1 @_ZN12_GLOBAL__N_119InflectedPluralSink11loadForCaseERKN6icu_7513ResourceTableEPKcRNS1_13ResourceValueE(ptr noundef nonnull align 8 dereferenceable(32) %this1, ptr noundef nonnull align 8 dereferenceable(37) %14, ptr noundef @.str.38, ptr noundef nonnull align 8 dereferenceable(8) %15)
  br i1 %call15, label %if.then16, label %if.end17

if.then16:                                        ; preds = %if.end14
  store i1 true, ptr %retval, align 1
  br label %return

if.end17:                                         ; preds = %if.end14
  store i1 false, ptr %retval, align 1
  br label %return

return:                                           ; preds = %if.end17, %if.then16, %if.then12, %if.then6, %if.then
  %16 = load i1, ptr %retval, align 1
  ret i1 %16
}