; Function Attrs: mustprogress uwtable
define internal fastcc noundef zeroext i1 @_ZN12_GLOBAL__N_119InflectedPluralSink13loadForGenderERKN6icu_7513ResourceTableEPKcRS2_RNS1_13ResourceValueER10UErrorCode(ptr nocapture noundef nonnull readonly align 8 dereferenceable(32) %this, ptr noundef nonnull align 8 dereferenceable(37) %genderTable, ptr noundef %genderVal, ptr noundef nonnull align 8 dereferenceable(37) %caseTable, ptr noundef nonnull align 8 dereferenceable(8) %value, ptr noundef nonnull align 4 dereferenceable(4) %status) unnamed_addr #1 align 2 {
entry:
  %ref.tmp = alloca %"class.icu_75::ResourceTable", align 8
  %call = tail call noundef signext i8 @_ZNK6icu_7513ResourceTable9findValueEPKcRNS_13ResourceValueE(ptr noundef nonnull align 8 dereferenceable(37) %genderTable, ptr noundef %genderVal, ptr noundef nonnull align 8 dereferenceable(8) %value)
  %tobool.not = icmp eq i8 %call, 0
  br i1 %tobool.not, label %return, label %if.end

if.end:                                           ; preds = %entry
  %vtable = load ptr, ptr %value, align 8
  %vfn = getelementptr inbounds i8, ptr %vtable, i64 88
  %0 = load ptr, ptr %vfn, align 8
  call void %0(ptr nonnull sret(%"class.icu_75::ResourceTable") align 8 %ref.tmp, ptr noundef nonnull align 8 dereferenceable(8) %value, ptr noundef nonnull align 4 dereferenceable(4) %status)
  call void @llvm.memcpy.p0.p0.i64(ptr noundef nonnull align 8 dereferenceable(37) %caseTable, ptr noundef nonnull align 8 dereferenceable(37) %ref.tmp, i64 37, i1 false)
  %caseVariant = getelementptr inbounds i8, ptr %this, i64 16
  %1 = load ptr, ptr %caseVariant, align 8
  %strcmpload = load i8, ptr %1, align 1
  %cmp.not = icmp eq i8 %strcmpload, 0
  br i1 %cmp.not, label %if.end14, label %if.then3

if.then3:                                         ; preds = %if.end
  %call.i = call noundef signext i8 @_ZNK6icu_7513ResourceTable9findValueEPKcRNS_13ResourceValueE(ptr noundef nonnull align 8 dereferenceable(37) %caseTable, ptr noundef nonnull %1, ptr noundef nonnull align 8 dereferenceable(8) %value)
  %tobool.not.i.not = icmp eq i8 %call.i, 0
  br i1 %tobool.not.i.not, label %if.end7, label %return

if.end7:                                          ; preds = %if.then3
  %2 = load ptr, ptr %caseVariant, align 8
  %call9 = call i32 @strcmp(ptr noundef nonnull dereferenceable(1) %2, ptr noundef nonnull dereferenceable(11) @.str.39) #21
  %cmp10.not = icmp eq i32 %call9, 0
  br i1 %cmp10.not, label %if.end14, label %land.lhs.true

land.lhs.true:                                    ; preds = %if.end7
  %call.i8 = call noundef signext i8 @_ZNK6icu_7513ResourceTable9findValueEPKcRNS_13ResourceValueE(ptr noundef nonnull align 8 dereferenceable(37) %caseTable, ptr noundef nonnull @.str.39, ptr noundef nonnull align 8 dereferenceable(8) %value)
  %tobool.not.i9.not = icmp eq i8 %call.i8, 0
  br i1 %tobool.not.i9.not, label %if.end14, label %return

if.end14:                                         ; preds = %if.end7, %land.lhs.true, %if.end
  %call.i10 = call noundef signext i8 @_ZNK6icu_7513ResourceTable9findValueEPKcRNS_13ResourceValueE(ptr noundef nonnull align 8 dereferenceable(37) %caseTable, ptr noundef nonnull @.str.38, ptr noundef nonnull align 8 dereferenceable(8) %value)
  %tobool.not.i11 = icmp ne i8 %call.i10, 0
  br label %return

return:                                           ; preds = %if.end14, %land.lhs.true, %if.then3, %entry
  %retval.0 = phi i1 [ false, %entry ], [ true, %if.then3 ], [ true, %land.lhs.true ], [ %tobool.not.i11, %if.end14 ]
  ret i1 %retval.0
}